target datalayout = "e-m:e-p270:32:32-p271:32:32-p272:64:64-i64:64-i128:128-f80:128-n8:16:32:64-S128"
target triple = "x86_64-pc-linux-gnu"

%struct.PJ_LP = type { double, double }
%struct.PJ_XY = type { double, double }

; Function Attrs: mustprogress nounwind uwtable
define internal { double, double } @_ZL19patterson_s_forward5PJ_LPP8PJconsts(double %0, double %1, ptr noundef %2) #1 {
  %4 = alloca %struct.PJ_XY, align 8
  %5 = alloca %struct.PJ_LP, align 8
  %6 = alloca ptr, align 8
  %7 = alloca double, align 8
  %8 = getelementptr inbounds nuw { double, double }, ptr %5, i32 0, i32 0
  store double %0, ptr %8, align 8
  %9 = getelementptr inbounds nuw { double, double }, ptr %5, i32 0, i32 1
  store double %1, ptr %9, align 8
  store ptr %2, ptr %6, align 8, !tbaa !3
  call void @llvm.memset.p0.i64(ptr align 8 %4, i8 0, i64 16, i1 false)
  call void @llvm.lifetime.start.p0(i64 8, ptr %7) #6
  %10 = getelementptr inbounds nuw %struct.PJ_LP, ptr %5, i32 0, i32 1
  %11 = load double, ptr %10, align 8, !tbaa !51
  %12 = getelementptr inbounds nuw %struct.PJ_LP, ptr %5, i32 0, i32 1
  %13 = load double, ptr %12, align 8, !tbaa !51
  %14 = fmul double %11, %13
  store double %14, ptr %7, align 8, !tbaa !46
  %15 = getelementptr inbounds nuw %struct.PJ_LP, ptr %5, i32 0, i32 0
  %16 = load double, ptr %15, align 8, !tbaa !54
  %17 = getelementptr inbounds nuw %struct.PJ_XY, ptr %4, i32 0, i32 0
  store double %16, ptr %17, align 8, !tbaa !53
  %18 = getelementptr inbounds nuw %struct.PJ_LP, ptr %5, i32 0, i32 1
  %19 = load double, ptr %18, align 8, !tbaa !51
  %20 = load double, ptr %7, align 8, !tbaa !46
  %21 = load double, ptr %7, align 8, !tbaa !46
  %22 = fmul double %20, %21
  %23 = load double, ptr %7, align 8, !tbaa !46
  %24 = load double, ptr %7, align 8, !tbaa !46
  %25 = call double @llvm.fmuladd.f64(double 2.406000e-02, double %24, double -1.449900e-01)
  %26 = call double @llvm.fmuladd.f64(double %23, double %25, double 2.318500e-01)
  %27 = call double @llvm.fmuladd.f64(double %22, double %26, double 1.014800e+00)
  %28 = fmul double %19, %27
  %29 = getelementptr inbounds nuw %struct.PJ_XY, ptr %4, i32 0, i32 1
  store double %28, ptr %29, align 8, !tbaa !44
  call void @llvm.lifetime.end.p0(i64 8, ptr %7) #6
  %30 = load { double, double }, ptr %4, align 8
  ret { double, double } %30
}